target datalayout = "e-m:e-p270:32:32-p271:32:32-p272:64:64-i64:64-i128:128-f80:128-n8:16:32:64-S128"
target triple = "x86_64-pc-linux-gnu"

%struct.nameData = type { [64 x i8] }
%union.ListCell = type { ptr }
%struct.HeapTupleData = type { i32, %struct.ItemPointerData, i32, ptr }
%struct.ItemPointerData = type { %struct.BlockIdData, i16 }
%struct.BlockIdData = type { i16, i16 }
%struct.HeapTupleHeaderData = type { %union.anon, %struct.ItemPointerData, i16, i16, i8, [0 x i8] }
%union.anon = type { %struct.HeapTupleFields }
%struct.HeapTupleFields = type { i32, i32, %union.anon.0 }
%union.anon.0 = type { i32 }
%struct.FormData_pg_am = type { i32, %struct.nameData, i32, i8 }
%struct.FormData_pg_opfamily = type { i32, i32, %struct.nameData, i32, i32 }

@.str.1 = private unnamed_addr constant [16 x i8] c"objectaddress.c\00", align 1
@.str.41 = private unnamed_addr constant [41 x i8] c"cache lookup failed for access method %u\00", align 1
@.str.151 = private unnamed_addr constant [12 x i8] c"%s USING %s\00", align 1
@.str.242 = private unnamed_addr constant [36 x i8] c"cache lookup failed for opfamily %u\00", align 1
@__func__.getOpFamilyIdentity = private unnamed_addr constant [20 x i8] c"getOpFamilyIdentity\00", align 1

; Function Attrs: inlinehint nounwind uwtable
define internal ptr @GETSTRUCT(ptr noundef %0) #4 {
  %2 = alloca ptr, align 8
  store ptr %0, ptr %2, align 8
  %3 = load ptr, ptr %2, align 8
  %4 = getelementptr inbounds nuw %struct.HeapTupleData, ptr %3, i32 0, i32 3
  %5 = load ptr, ptr %4, align 8
  %6 = load ptr, ptr %2, align 8
  %7 = getelementptr inbounds nuw %struct.HeapTupleData, ptr %6, i32 0, i32 3
  %8 = load ptr, ptr %7, align 8
  %9 = getelementptr inbounds nuw %struct.HeapTupleHeaderData, ptr %8, i32 0, i32 4
  %10 = load i8, ptr %9, align 2
  %11 = zext i8 %10 to i32
  %12 = sext i32 %11 to i64
  %13 = getelementptr inbounds i8, ptr %5, i64 %12
  ret ptr %13
}

; Function Attrs: inlinehint nounwind uwtable
define internal i64 @ObjectIdGetDatum(i32 noundef %0) #4 {
  %2 = alloca i32, align 4
  store i32 %0, ptr %2, align 4
  %3 = load i32, ptr %2, align 4
  %4 = zext i32 %3 to i64
  ret i64 %4
}

; Function Attrs: nounwind uwtable
define internal void @getOpFamilyIdentity(ptr noundef %0, i32 noundef %1, ptr noundef %2, i1 noundef zeroext %3) #0 {
  %5 = alloca ptr, align 8
  %6 = alloca i32, align 4
  %7 = alloca ptr, align 8
  %8 = alloca i8, align 1
  %9 = alloca ptr, align 8
  %10 = alloca ptr, align 8
  %11 = alloca ptr, align 8
  %12 = alloca ptr, align 8
  %13 = alloca ptr, align 8
  %14 = alloca i32, align 4
  %15 = alloca %union.ListCell, align 8
  %16 = alloca %union.ListCell, align 8
  %17 = alloca %union.ListCell, align 8
  store ptr %0, ptr %5, align 8
  store i32 %1, ptr %6, align 4
  store ptr %2, ptr %7, align 8
  %18 = zext i1 %3 to i8
  store i8 %18, ptr %8, align 1
  call void @llvm.lifetime.start.p0(i64 8, ptr %9) #10
  call void @llvm.lifetime.start.p0(i64 8, ptr %10) #10
  call void @llvm.lifetime.start.p0(i64 8, ptr %11) #10
  call void @llvm.lifetime.start.p0(i64 8, ptr %12) #10
  call void @llvm.lifetime.start.p0(i64 8, ptr %13) #10
  %19 = load i32, ptr %6, align 4
  %20 = call i64 @ObjectIdGetDatum(i32 noundef %19)
  %21 = call ptr @SearchSysCache1(i32 noundef 42, i64 noundef %20)
  store ptr %21, ptr %9, align 8
  %22 = load ptr, ptr %9, align 8
  %23 = icmp ne ptr %22, null
  br i1 %23, label %40, label %24

24:                                               ; preds = %4
  %25 = load i8, ptr %8, align 1, !range !4, !noundef !5
  %26 = trunc i8 %25 to i1
  br i1 %26, label %39, label %27

27:                                               ; preds = %24
  br label %28

28:                                               ; preds = %27
  br i1 true, label %29, label %31

29:                                               ; preds = %28
  %30 = call zeroext i1 @errstart_cold(i32 noundef 21, ptr noundef null) #11
  br i1 %30, label %33, label %36

31:                                               ; preds = %28
  %32 = call zeroext i1 @errstart(i32 noundef 21, ptr noundef null)
  br i1 %32, label %33, label %36

33:                                               ; preds = %31, %29
  %34 = load i32, ptr %6, align 4
  %35 = call i32 (ptr, ...) @errmsg_internal(ptr noundef @.str.242, i32 noundef %34)
  call void @errfinish(ptr noundef @.str.1, i32 noundef 6052, ptr noundef @__func__.getOpFamilyIdentity)
  br label %36

36:                                               ; preds = %33, %31, %29
  unreachable

37:                                               ; No predecessors!
  br label %38

38:                                               ; preds = %37
  br label %39

39:                                               ; preds = %38, %24
  store i32 1, ptr %14, align 4
  br label %108

40:                                               ; preds = %4
  %41 = load ptr, ptr %9, align 8
  %42 = call ptr @GETSTRUCT(ptr noundef %41)
  store ptr %42, ptr %10, align 8
  %43 = load ptr, ptr %10, align 8
  %44 = getelementptr inbounds nuw %struct.FormData_pg_opfamily, ptr %43, i32 0, i32 1
  %45 = load i32, ptr %44, align 4
  %46 = call i64 @ObjectIdGetDatum(i32 noundef %45)
  %47 = call ptr @SearchSysCache1(i32 noundef 2, i64 noundef %46)
  store ptr %47, ptr %11, align 8
  %48 = load ptr, ptr %11, align 8
  %49 = icmp ne ptr %48, null
  br i1 %49, label %64, label %50

50:                                               ; preds = %40
  br label %51

51:                                               ; preds = %50
  br i1 true, label %52, label %54

52:                                               ; preds = %51
  %53 = call zeroext i1 @errstart_cold(i32 noundef 21, ptr noundef null) #11
  br i1 %53, label %56, label %61

54:                                               ; preds = %51
  %55 = call zeroext i1 @errstart(i32 noundef 21, ptr noundef null)
  br i1 %55, label %56, label %61

56:                                               ; preds = %54, %52
  %57 = load ptr, ptr %10, align 8
  %58 = getelementptr inbounds nuw %struct.FormData_pg_opfamily, ptr %57, i32 0, i32 1
  %59 = load i32, ptr %58, align 4
  %60 = call i32 (ptr, ...) @errmsg_internal(ptr noundef @.str.41, i32 noundef %59)
  call void @errfinish(ptr noundef @.str.1, i32 noundef 6060, ptr noundef @__func__.getOpFamilyIdentity)
  br label %61

61:                                               ; preds = %56, %54, %52
  unreachable

62:                                               ; No predecessors!
  br label %63

63:                                               ; preds = %62
  br label %64

64:                                               ; preds = %63, %40
  %65 = load ptr, ptr %11, align 8
  %66 = call ptr @GETSTRUCT(ptr noundef %65)
  store ptr %66, ptr %12, align 8
  %67 = load ptr, ptr %10, align 8
  %68 = getelementptr inbounds nuw %struct.FormData_pg_opfamily, ptr %67, i32 0, i32 3
  %69 = load i32, ptr %68, align 4
  %70 = call ptr @get_namespace_name_or_temp(i32 noundef %69)
  store ptr %70, ptr %13, align 8
  %71 = load ptr, ptr %5, align 8
  %72 = load ptr, ptr %13, align 8
  %73 = load ptr, ptr %10, align 8
  %74 = getelementptr inbounds nuw %struct.FormData_pg_opfamily, ptr %73, i32 0, i32 2
  %75 = getelementptr inbounds nuw %struct.nameData, ptr %74, i32 0, i32 0
  %76 = getelementptr inbounds [64 x i8], ptr %75, i64 0, i64 0
  %77 = call ptr @quote_qualified_identifier(ptr noundef %72, ptr noundef %76)
  %78 = load ptr, ptr %12, align 8
  %79 = getelementptr inbounds nuw %struct.FormData_pg_am, ptr %78, i32 0, i32 1
  %80 = getelementptr inbounds nuw %struct.nameData, ptr %79, i32 0, i32 0
  %81 = getelementptr inbounds [64 x i8], ptr %80, i64 0, i64 0
  call void (ptr, ptr, ...) @appendStringInfo(ptr noundef %71, ptr noundef @.str.151, ptr noundef %77, ptr noundef %81)
  %82 = load ptr, ptr %7, align 8
  %83 = icmp ne ptr %82, null
  br i1 %83, label %84, label %105

84:                                               ; preds = %64
  %85 = load ptr, ptr %12, align 8
  %86 = getelementptr inbounds nuw %struct.FormData_pg_am, ptr %85, i32 0, i32 1
  %87 = getelementptr inbounds nuw %struct.nameData, ptr %86, i32 0, i32 0
  %88 = getelementptr inbounds [64 x i8], ptr %87, i64 0, i64 0
  %89 = call ptr @pstrdup(ptr noundef %88)
  store ptr %89, ptr %15, align 8
  %90 = load ptr, ptr %13, align 8
  %91 = call ptr @pstrdup(ptr noundef %90)
  store ptr %91, ptr %16, align 8
  %92 = load ptr, ptr %10, align 8
  %93 = getelementptr inbounds nuw %struct.FormData_pg_opfamily, ptr %92, i32 0, i32 2
  %94 = getelementptr inbounds nuw %struct.nameData, ptr %93, i32 0, i32 0
  %95 = getelementptr inbounds [64 x i8], ptr %94, i64 0, i64 0
  %96 = call ptr @pstrdup(ptr noundef %95)
  store ptr %96, ptr %17, align 8
  %97 = getelementptr inbounds nuw %union.ListCell, ptr %15, i32 0, i32 0
  %98 = load ptr, ptr %97, align 8
  %99 = getelementptr inbounds nuw %union.ListCell, ptr %16, i32 0, i32 0
  %100 = load ptr, ptr %99, align 8
  %101 = getelementptr inbounds nuw %union.ListCell, ptr %17, i32 0, i32 0
  %102 = load ptr, ptr %101, align 8
  %103 = call ptr @list_make3_impl(i32 noundef 1, ptr %98, ptr %100, ptr %102)
  %104 = load ptr, ptr %7, align 8
  store ptr %103, ptr %104, align 8
  br label %105

105:                                              ; preds = %84, %64
  %106 = load ptr, ptr %11, align 8
  call void @ReleaseSysCache(ptr noundef %106)
  %107 = load ptr, ptr %9, align 8
  call void @ReleaseSysCache(ptr noundef %107)
  store i32 0, ptr %14, align 4
  br label %108

108:                                              ; preds = %105, %39
  call void @llvm.lifetime.end.p0(i64 8, ptr %13) #10
  call void @llvm.lifetime.end.p0(i64 8, ptr %12) #10
  call void @llvm.lifetime.end.p0(i64 8, ptr %11) #10
  call void @llvm.lifetime.end.p0(i64 8, ptr %10) #10
  call void @llvm.lifetime.end.p0(i64 8, ptr %9) #10
  %109 = load i32, ptr %14, align 4
  switch i32 %109, label %111 [
    i32 0, label %110
    i32 1, label %110
  ]

110:                                              ; preds = %108, %108
  ret void

111:                                              ; preds = %108
  unreachable
}