; Function Attrs: nounwind uwtable
define internal fastcc void @getOpFamilyIdentity(ptr noundef nonnull %0, i32 noundef %1, ptr noundef writeonly captures(address_is_null) %2, i1 noundef zeroext %3) unnamed_addr #0 {
  %5 = zext i32 %1 to i64
  %6 = tail call ptr @SearchSysCache1(i32 noundef 42, i64 noundef %5) #11
  %.not = icmp eq ptr %6, null
  br i1 %.not, label %7, label %11

7:                                                ; preds = %4
  br i1 %3, label %43, label %8

8:                                                ; preds = %7
  %9 = tail call zeroext i1 @errstart_cold(i32 noundef 21, ptr noundef null) #12
  tail call void @llvm.assume(i1 %9)
  %10 = tail call i32 (ptr, ...) @errmsg_internal(ptr noundef nonnull @.str.242, i32 noundef %1) #11
  tail call void @errfinish(ptr noundef nonnull @.str.1, i32 noundef 6052, ptr noundef nonnull @__func__.getOpFamilyIdentity) #11
  unreachable

11:                                               ; preds = %4
  %12 = getelementptr i8, ptr %6, i64 16
  %.val26 = load ptr, ptr %12, align 8
  %13 = getelementptr inbounds nuw i8, ptr %.val26, i64 22
  %14 = load i8, ptr %13, align 2
  %15 = zext i8 %14 to i64
  %16 = getelementptr inbounds nuw i8, ptr %.val26, i64 %15
  %17 = getelementptr inbounds nuw i8, ptr %16, i64 4
  %18 = load i32, ptr %17, align 4
  %19 = zext i32 %18 to i64
  %20 = tail call ptr @SearchSysCache1(i32 noundef 2, i64 noundef %19) #11
  %.not24 = icmp eq ptr %20, null
  br i1 %.not24, label %21, label %25

21:                                               ; preds = %11
  %22 = tail call zeroext i1 @errstart_cold(i32 noundef 21, ptr noundef null) #12
  tail call void @llvm.assume(i1 %22)
  %23 = load i32, ptr %17, align 4
  %24 = tail call i32 (ptr, ...) @errmsg_internal(ptr noundef nonnull @.str.41, i32 noundef %23) #11
  tail call void @errfinish(ptr noundef nonnull @.str.1, i32 noundef 6060, ptr noundef nonnull @__func__.getOpFamilyIdentity) #11
  unreachable

25:                                               ; preds = %11
  %26 = getelementptr i8, ptr %20, i64 16
  %.val = load ptr, ptr %26, align 8
  %27 = getelementptr inbounds nuw i8, ptr %.val, i64 22
  %28 = load i8, ptr %27, align 2
  %29 = zext i8 %28 to i64
  %30 = getelementptr inbounds nuw i8, ptr %.val, i64 %29
  %31 = getelementptr inbounds nuw i8, ptr %16, i64 72
  %32 = load i32, ptr %31, align 4
  %33 = tail call ptr @get_namespace_name_or_temp(i32 noundef %32) #11
  %34 = getelementptr inbounds nuw i8, ptr %16, i64 8
  %35 = tail call ptr @quote_qualified_identifier(ptr noundef %33, ptr noundef nonnull %34) #11
  %36 = getelementptr inbounds nuw i8, ptr %30, i64 4
  tail call void (ptr, ptr, ...) @appendStringInfo(ptr noundef nonnull %0, ptr noundef nonnull @.str.151, ptr noundef %35, ptr noundef nonnull %36) #11
  %.not25 = icmp eq ptr %2, null
  br i1 %.not25, label %42, label %37

37:                                               ; preds = %25
  %38 = tail call ptr @pstrdup(ptr noundef nonnull %36) #11
  %39 = tail call ptr @pstrdup(ptr noundef %33) #11
  %40 = tail call ptr @pstrdup(ptr noundef nonnull %34) #11
  %41 = tail call ptr @list_make3_impl(i32 noundef 1, ptr %38, ptr %39, ptr %40) #11
  store ptr %41, ptr %2, align 8
  br label %42

42:                                               ; preds = %37, %25
  tail call void @ReleaseSysCache(ptr noundef nonnull %20) #11
  tail call void @ReleaseSysCache(ptr noundef nonnull %6) #11
  br label %43

43:                                               ; preds = %7, %42
  ret void
}